; Function Attrs: mustprogress nofree norecurse nosync nounwind willreturn memory(none) uwtable
define signext i8 @uscript_isRightToLeft_75(i32 noundef %script) local_unnamed_addr #3 {
entry:
  %or.cond.i = icmp ult i32 %script, 200
  br i1 %or.cond.i, label %if.then.i, label %_ZN12_GLOBAL__N_114getScriptPropsE11UScriptCode.exit

if.then.i:                                        ; preds = %entry
  %idxprom.i = zext nneg i32 %script to i64
  %arrayidx.i = getelementptr inbounds [200 x i32], ptr @_ZN12_GLOBAL__N_112SCRIPT_PROPSE, i64 0, i64 %idxprom.i
  %0 = load i32, ptr %arrayidx.i, align 4
  %1 = lshr i32 %0, 24
  %2 = trunc i32 %1 to i8
  %3 = and i8 %2, 1
  br label %_ZN12_GLOBAL__N_114getScriptPropsE11UScriptCode.exit

_ZN12_GLOBAL__N_114getScriptPropsE11UScriptCode.exit: ; preds = %entry, %if.then.i
  %retval.0.i = phi i8 [ %3, %if.then.i ], [ 0, %entry ]
  ret i8 %retval.0.i
}